target datalayout = "e-m:e-p270:32:32-p271:32:32-p272:64:64-i64:64-i128:128-f80:128-n8:16:32:64-S128"
target triple = "x86_64-pc-linux-gnu"

%"class.casadi::SXElem" = type { ptr }
%"class.casadi::SXNode" = type { ptr, i32, i32 }

; Function Attrs: mustprogress nounwind uwtable
define noundef ptr @_ZN6casadi6SXElem14assignNoDeleteERKS0_(ptr noundef nonnull align 8 dereferenceable(8) %0, ptr noundef nonnull align 8 dereferenceable(8) %1) #4 align 2 {
  %3 = alloca ptr, align 8
  %4 = alloca ptr, align 8
  %5 = alloca ptr, align 8
  %6 = alloca ptr, align 8
  store ptr %0, ptr %4, align 8
  store ptr %1, ptr %5, align 8
  %7 = load ptr, ptr %4, align 8
  %8 = getelementptr inbounds %"class.casadi::SXElem", ptr %7, i32 0, i32 0
  %9 = load ptr, ptr %8, align 8
  store ptr %9, ptr %6, align 8
  %10 = getelementptr inbounds %"class.casadi::SXElem", ptr %7, i32 0, i32 0
  %11 = load ptr, ptr %10, align 8
  %12 = load ptr, ptr %5, align 8
  %13 = getelementptr inbounds %"class.casadi::SXElem", ptr %12, i32 0, i32 0
  %14 = load ptr, ptr %13, align 8
  %15 = icmp eq ptr %11, %14
  br i1 %15, label %16, label %18

16:                                               ; preds = %2
  %17 = load ptr, ptr %6, align 8
  store ptr %17, ptr %3, align 8
  br label %34

18:                                               ; preds = %2
  %19 = getelementptr inbounds %"class.casadi::SXElem", ptr %7, i32 0, i32 0
  %20 = load ptr, ptr %19, align 8
  %21 = getelementptr inbounds %"class.casadi::SXNode", ptr %20, i32 0, i32 2
  %22 = load i32, ptr %21, align 4
  %23 = add i32 %22, -1
  store i32 %23, ptr %21, align 4
  %24 = load ptr, ptr %5, align 8
  %25 = getelementptr inbounds %"class.casadi::SXElem", ptr %24, i32 0, i32 0
  %26 = load ptr, ptr %25, align 8
  %27 = getelementptr inbounds %"class.casadi::SXElem", ptr %7, i32 0, i32 0
  store ptr %26, ptr %27, align 8
  %28 = getelementptr inbounds %"class.casadi::SXElem", ptr %7, i32 0, i32 0
  %29 = load ptr, ptr %28, align 8
  %30 = getelementptr inbounds %"class.casadi::SXNode", ptr %29, i32 0, i32 2
  %31 = load i32, ptr %30, align 4
  %32 = add i32 %31, 1
  store i32 %32, ptr %30, align 4
  %33 = load ptr, ptr %6, align 8
  store ptr %33, ptr %3, align 8
  br label %34

34:                                               ; preds = %18, %16
  %35 = load ptr, ptr %3, align 8
  ret ptr %35
}