; Function Attrs: mustprogress nofree norecurse nosync nounwind willreturn memory(readwrite, inaccessiblemem: none) uwtable
define noundef ptr @_ZN6casadi6SXElem14assignNoDeleteERKS0_(ptr nocapture noundef nonnull align 8 dereferenceable(8) %0, ptr nocapture noundef nonnull readonly align 8 dereferenceable(8) %1) local_unnamed_addr #4 align 2 {
  %3 = load ptr, ptr %0, align 8
  %4 = load ptr, ptr %1, align 8
  %5 = icmp eq ptr %3, %4
  br i1 %5, label %14, label %6

6:                                                ; preds = %2
  %7 = getelementptr inbounds i8, ptr %3, i64 12
  %8 = load i32, ptr %7, align 4
  %9 = add i32 %8, -1
  store i32 %9, ptr %7, align 4
  %10 = load ptr, ptr %1, align 8
  store ptr %10, ptr %0, align 8
  %11 = getelementptr inbounds i8, ptr %10, i64 12
  %12 = load i32, ptr %11, align 4
  %13 = add i32 %12, 1
  store i32 %13, ptr %11, align 4
  br label %14

14:                                               ; preds = %2, %6
  ret ptr %3
}